; Function Attrs: nounwind sspstrong uwtable
define internal i64 @ossl_ec_group_get_order(i64 noundef %0) #0 {
  %2 = alloca i64, align 8
  call void @llvm.lifetime.start.p0(i64 8, ptr nonnull %2) #7
  %3 = tail call ptr @rb_check_typeddata(i64 noundef %0, ptr noundef nonnull @ossl_ec_group_type) #7
  %4 = icmp eq ptr %3, null
  br i1 %4, label %5, label %7

5:                                                ; preds = %1
  %6 = load i64, ptr @eEC_GROUP, align 8, !tbaa !6
  tail call void (i64, ptr, ...) @ossl_raise(i64 noundef %6, ptr noundef nonnull @.str.59) #9
  unreachable

7:                                                ; preds = %1
  %8 = tail call i64 @ossl_bn_new(ptr noundef null) #7
  store i64 %8, ptr %2, align 8, !tbaa !6
  %9 = call ptr @ossl_bn_value_ptr(ptr noundef nonnull %2) #7
  %10 = call ptr @ossl_bn_ctx_get() #7
  %11 = call i32 @EC_GROUP_get_order(ptr noundef nonnull %3, ptr noundef %9, ptr noundef %10) #7
  %.not = icmp eq i32 %11, 1
  br i1 %.not, label %14, label %12

12:                                               ; preds = %7
  %13 = load i64, ptr @eEC_GROUP, align 8, !tbaa !6
  call void (i64, ptr, ...) @ossl_raise(i64 noundef %13, ptr noundef nonnull @.str.88) #9
  unreachable

14:                                               ; preds = %7
  %15 = load i64, ptr %2, align 8, !tbaa !6
  call void @llvm.lifetime.end.p0(i64 8, ptr nonnull %2) #7
  ret i64 %15
}